; ModuleID = '21/454.c'
source_filename = "21/454.c"
target datalayout = "e-m:e-p270:32:32-p271:32:32-p272:64:64-i64:64-f80:128-n8:16:32:64-S128"
target triple = "x86_64-pc-linux-gnu"

@.str = private unnamed_addr constant [3 x i8] c"%d\00", align 1
@.str.1 = private unnamed_addr constant [4 x i8] c",%d\00", align 1
@.str.2 = private unnamed_addr constant [2 x i8] c"\0A\00", align 1

; Function Attrs: noinline nounwind uwtable
define dso_local i32 @main() #0 {
  %1 = alloca i32, align 4
  %2 = alloca i32, align 4
  %3 = alloca [300 x i32], align 16
  %4 = alloca i32, align 4
  %5 = alloca [300 x i32], align 16
  %6 = alloca i32, align 4
  %7 = alloca i32, align 4
  %8 = alloca i32, align 4
  %9 = alloca double, align 8
  %10 = alloca double, align 8
  %11 = alloca double, align 8
  store i32 0, i32* %1, align 4
  %12 = bitcast [300 x i32]* %5 to i8*
  call void @llvm.memset.p0i8.i64(i8* align 16 %12, i8 0, i64 1200, i1 false)
  %13 = bitcast i8* %12 to <{ i32, [299 x i32] }>*
  %14 = getelementptr inbounds <{ i32, [299 x i32] }>, <{ i32, [299 x i32] }>* %13, i32 0, i32 0
  store i32 15, i32* %14, align 16
  store i32 0, i32* %6, align 4
  store double 0.000000e+00, double* %9, align 8
  %15 = call i32 (i8*, ...) @__isoc99_scanf(i8* getelementptr inbounds ([3 x i8], [3 x i8]* @.str, i64 0, i64 0), i32* %2)
  store i32 0, i32* %4, align 4
  br label %16

16:                                               ; preds = %32, %0
  %17 = load i32, i32* %4, align 4
  %18 = load i32, i32* %2, align 4
  %19 = icmp slt i32 %17, %18
  br i1 %19, label %20, label %35

20:                                               ; preds = %16
  %21 = load i32, i32* %4, align 4
  %22 = sext i32 %21 to i64
  %23 = getelementptr inbounds [300 x i32], [300 x i32]* %3, i64 0, i64 %22
  %24 = call i32 (i8*, ...) @__isoc99_scanf(i8* getelementptr inbounds ([3 x i8], [3 x i8]* @.str, i64 0, i64 0), i32* %23)
  %25 = load double, double* %9, align 8
  %26 = load i32, i32* %4, align 4
  %27 = sext i32 %26 to i64
  %28 = getelementptr inbounds [300 x i32], [300 x i32]* %3, i64 0, i64 %27
  %29 = load i32, i32* %28, align 4
  %30 = sitofp i32 %29 to double
  %31 = fadd double %25, %30
  store double %31, double* %9, align 8
  br label %32

32:                                               ; preds = %20
  %33 = load i32, i32* %4, align 4
  %34 = add nsw i32 %33, 1
  store i32 %34, i32* %4, align 4
  br label %16

35:                                               ; preds = %16
  %36 = load double, double* %9, align 8
  %37 = load i32, i32* %2, align 4
  %38 = sitofp i32 %37 to double
  %39 = fdiv double %36, %38
  store double %39, double* %11, align 8
  %40 = getelementptr inbounds [300 x i32], [300 x i32]* %3, i64 0, i64 0
  %41 = load i32, i32* %40, align 16
  %42 = sitofp i32 %41 to double
  %43 = load double, double* %11, align 8
  %44 = fsub double %42, %43
  %45 = call double @llvm.fabs.f64(double %44)
  store double %45, double* %10, align 8
  store i32 0, i32* %4, align 4
  br label %46

46:                                               ; preds = %71, %35
  %47 = load i32, i32* %4, align 4
  %48 = load i32, i32* %2, align 4
  %49 = icmp slt i32 %47, %48
  br i1 %49, label %50, label %74

50:                                               ; preds = %46
  %51 = load i32, i32* %4, align 4
  %52 = sext i32 %51 to i64
  %53 = getelementptr inbounds [300 x i32], [300 x i32]* %3, i64 0, i64 %52
  %54 = load i32, i32* %53, align 4
  %55 = sitofp i32 %54 to double
  %56 = load double, double* %11, align 8
  %57 = fsub double %55, %56
  %58 = call double @llvm.fabs.f64(double %57)
  %59 = load double, double* %10, align 8
  %60 = fcmp ogt double %58, %59
  br i1 %60, label %61, label %70

61:                                               ; preds = %50
  %62 = load i32, i32* %4, align 4
  %63 = sext i32 %62 to i64
  %64 = getelementptr inbounds [300 x i32], [300 x i32]* %3, i64 0, i64 %63
  %65 = load i32, i32* %64, align 4
  %66 = sitofp i32 %65 to double
  %67 = load double, double* %11, align 8
  %68 = fsub double %66, %67
  %69 = call double @llvm.fabs.f64(double %68)
  store double %69, double* %10, align 8
  br label %70

70:                                               ; preds = %61, %50
  br label %71

71:                                               ; preds = %70
  %72 = load i32, i32* %4, align 4
  %73 = add nsw i32 %72, 1
  store i32 %73, i32* %4, align 4
  br label %46

74:                                               ; preds = %46
  store i32 0, i32* %4, align 4
  br label %75

75:                                               ; preds = %101, %74
  %76 = load i32, i32* %4, align 4
  %77 = load i32, i32* %2, align 4
  %78 = icmp slt i32 %76, %77
  br i1 %78, label %79, label %104

79:                                               ; preds = %75
  %80 = load i32, i32* %4, align 4
  %81 = sext i32 %80 to i64
  %82 = getelementptr inbounds [300 x i32], [300 x i32]* %3, i64 0, i64 %81
  %83 = load i32, i32* %82, align 4
  %84 = sitofp i32 %83 to double
  %85 = load double, double* %11, align 8
  %86 = fsub double %84, %85
  %87 = call double @llvm.fabs.f64(double %86)
  %88 = load double, double* %10, align 8
  %89 = fcmp oeq double %87, %88
  br i1 %89, label %90, label %100

90:                                               ; preds = %79
  %91 = load i32, i32* %4, align 4
  %92 = sext i32 %91 to i64
  %93 = getelementptr inbounds [300 x i32], [300 x i32]* %3, i64 0, i64 %92
  %94 = load i32, i32* %93, align 4
  %95 = load i32, i32* %6, align 4
  %96 = sext i32 %95 to i64
  %97 = getelementptr inbounds [300 x i32], [300 x i32]* %5, i64 0, i64 %96
  store i32 %94, i32* %97, align 4
  %98 = load i32, i32* %6, align 4
  %99 = add nsw i32 %98, 1
  store i32 %99, i32* %6, align 4
  br label %100

100:                                              ; preds = %90, %79
  br label %101

101:                                              ; preds = %100
  %102 = load i32, i32* %4, align 4
  %103 = add nsw i32 %102, 1
  store i32 %103, i32* %4, align 4
  br label %75

104:                                              ; preds = %75
  store i32 1, i32* %4, align 4
  br label %105

105:                                              ; preds = %150, %104
  %106 = load i32, i32* %4, align 4
  %107 = load i32, i32* %6, align 4
  %108 = icmp slt i32 %106, %107
  br i1 %108, label %109, label %153

109:                                              ; preds = %105
  store i32 0, i32* %7, align 4
  br label %110

110:                                              ; preds = %146, %109
  %111 = load i32, i32* %7, align 4
  %112 = load i32, i32* %6, align 4
  %113 = load i32, i32* %4, align 4
  %114 = sub nsw i32 %112, %113
  %115 = icmp slt i32 %111, %114
  br i1 %115, label %116, label %149

116:                                              ; preds = %110
  %117 = load i32, i32* %7, align 4
  %118 = sext i32 %117 to i64
  %119 = getelementptr inbounds [300 x i32], [300 x i32]* %5, i64 0, i64 %118
  %120 = load i32, i32* %119, align 4
  %121 = load i32, i32* %7, align 4
  %122 = add nsw i32 %121, 1
  %123 = sext i32 %122 to i64
  %124 = getelementptr inbounds [300 x i32], [300 x i32]* %5, i64 0, i64 %123
  %125 = load i32, i32* %124, align 4
  %126 = icmp sgt i32 %120, %125
  br i1 %126, label %127, label %145

127:                                              ; preds = %116
  %128 = load i32, i32* %7, align 4
  %129 = sext i32 %128 to i64
  %130 = getelementptr inbounds [300 x i32], [300 x i32]* %5, i64 0, i64 %129
  %131 = load i32, i32* %130, align 4
  store i32 %131, i32* %8, align 4
  %132 = load i32, i32* %7, align 4
  %133 = add nsw i32 %132, 1
  %134 = sext i32 %133 to i64
  %135 = getelementptr inbounds [300 x i32], [300 x i32]* %5, i64 0, i64 %134
  %136 = load i32, i32* %135, align 4
  %137 = load i32, i32* %7, align 4
  %138 = sext i32 %137 to i64
  %139 = getelementptr inbounds [300 x i32], [300 x i32]* %5, i64 0, i64 %138
  store i32 %136, i32* %139, align 4
  %140 = load i32, i32* %8, align 4
  %141 = load i32, i32* %7, align 4
  %142 = add nsw i32 %141, 1
  %143 = sext i32 %142 to i64
  %144 = getelementptr inbounds [300 x i32], [300 x i32]* %5, i64 0, i64 %143
  store i32 %140, i32* %144, align 4
  br label %145

145:                                              ; preds = %127, %116
  br label %146

146:                                              ; preds = %145
  %147 = load i32, i32* %7, align 4
  %148 = add nsw i32 %147, 1
  store i32 %148, i32* %7, align 4
  br label %110

149:                                              ; preds = %110
  br label %150

150:                                              ; preds = %149
  %151 = load i32, i32* %4, align 4
  %152 = add nsw i32 %151, 1
  store i32 %152, i32* %4, align 4
  br label %105

153:                                              ; preds = %105
  %154 = getelementptr inbounds [300 x i32], [300 x i32]* %5, i64 0, i64 0
  %155 = load i32, i32* %154, align 16
  %156 = call i32 (i8*, ...) @printf(i8* getelementptr inbounds ([3 x i8], [3 x i8]* @.str, i64 0, i64 0), i32 %155)
  store i32 1, i32* %7, align 4
  br label %157

157:                                              ; preds = %167, %153
  %158 = load i32, i32* %7, align 4
  %159 = load i32, i32* %6, align 4
  %160 = icmp slt i32 %158, %159
  br i1 %160, label %161, label %170

161:                                              ; preds = %157
  %162 = load i32, i32* %7, align 4
  %163 = sext i32 %162 to i64
  %164 = getelementptr inbounds [300 x i32], [300 x i32]* %5, i64 0, i64 %163
  %165 = load i32, i32* %164, align 4
  %166 = call i32 (i8*, ...) @printf(i8* getelementptr inbounds ([4 x i8], [4 x i8]* @.str.1, i64 0, i64 0), i32 %165)
  br label %167

167:                                              ; preds = %161
  %168 = load i32, i32* %7, align 4
  %169 = add nsw i32 %168, 1
  store i32 %169, i32* %7, align 4
  br label %157

170:                                              ; preds = %157
  %171 = call i32 (i8*, ...) @printf(i8* getelementptr inbounds ([2 x i8], [2 x i8]* @.str.2, i64 0, i64 0))
  ret i32 0
}

; Function Attrs: argmemonly nounwind willreturn
declare void @llvm.memset.p0i8.i64(i8* nocapture writeonly, i8, i64, i1 immarg) #1

declare dso_local i32 @__isoc99_scanf(i8*, ...) #2

; Function Attrs: nounwind readnone speculatable willreturn
declare double @llvm.fabs.f64(double) #3

declare dso_local i32 @printf(i8*, ...) #2


!llvm.module.flags = !{!0}
!llvm.ident = !{!1}

!0 = !{i32 1, !"wchar_size", i32 4}
!1 = !{!"clang version 10.0.0-4ubuntu1 "}
